(lp1
(dp2
S'index'
p3
S'0'
sS'use_ctrl'
p4
S'on'
p5
sS'url'
p6
S'http://localhost:22222/?action=test_msg'
p7
sS'interval'
p8
S'1'
sS'app_key'
p9
S''
sS'qq_title'
p10
S'test'
p11
sS'action'
p12
S'save_params'
p13
sS'auto_on'
p14
S'on'
p15
sS'qq_cmd'
p16
S'"C:\\Program Files (x86)\\Tencent\\QQ\\Bin\\QQScLauncher.exe" /uin:2025096180 /quicklunch:1839C30B3290487F07F99E45CD5DC1F3B61ACFCF74E04917C52CFDB9AE0EC3F84819352EE26E0B2E'
p17
sa.